
Laboratorio 1.elf:     file format elf32-avr

Sections:
Idx Name          Size      VMA       LMA       File off  Algn
  0 .data         0000006a  00800100  000002a4  00000338  2**0
                  CONTENTS, ALLOC, LOAD, DATA
  1 .text         000002a4  00000000  00000000  00000094  2**1
                  CONTENTS, ALLOC, LOAD, READONLY, CODE
  2 .bss          00000002  0080016a  0080016a  000003a2  2**0
                  ALLOC
  3 .comment      00000030  00000000  00000000  000003a2  2**0
                  CONTENTS, READONLY
  4 .note.gnu.avr.deviceinfo 00000040  00000000  00000000  000003d4  2**2
                  CONTENTS, READONLY
  5 .debug_aranges 00000070  00000000  00000000  00000414  2**0
                  CONTENTS, READONLY, DEBUGGING
  6 .debug_info   00000a67  00000000  00000000  00000484  2**0
                  CONTENTS, READONLY, DEBUGGING
  7 .debug_abbrev 00000861  00000000  00000000  00000eeb  2**0
                  CONTENTS, READONLY, DEBUGGING
  8 .debug_line   0000049b  00000000  00000000  0000174c  2**0
                  CONTENTS, READONLY, DEBUGGING
  9 .debug_frame  000000dc  00000000  00000000  00001be8  2**2
                  CONTENTS, READONLY, DEBUGGING
 10 .debug_str    00000450  00000000  00000000  00001cc4  2**0
                  CONTENTS, READONLY, DEBUGGING
 11 .debug_loc    00000221  00000000  00000000  00002114  2**0
                  CONTENTS, READONLY, DEBUGGING
 12 .debug_ranges 00000050  00000000  00000000  00002335  2**0
                  CONTENTS, READONLY, DEBUGGING

Disassembly of section .text:

00000000 <__vectors>:
   0:	0c 94 34 00 	jmp	0x68	; 0x68 <__ctors_end>
   4:	0c 94 51 00 	jmp	0xa2	; 0xa2 <__bad_interrupt>
   8:	0c 94 51 00 	jmp	0xa2	; 0xa2 <__bad_interrupt>
   c:	0c 94 51 00 	jmp	0xa2	; 0xa2 <__bad_interrupt>
  10:	0c 94 51 00 	jmp	0xa2	; 0xa2 <__bad_interrupt>
  14:	0c 94 51 00 	jmp	0xa2	; 0xa2 <__bad_interrupt>
  18:	0c 94 51 00 	jmp	0xa2	; 0xa2 <__bad_interrupt>
  1c:	0c 94 51 00 	jmp	0xa2	; 0xa2 <__bad_interrupt>
  20:	0c 94 51 00 	jmp	0xa2	; 0xa2 <__bad_interrupt>
  24:	0c 94 51 00 	jmp	0xa2	; 0xa2 <__bad_interrupt>
  28:	0c 94 51 00 	jmp	0xa2	; 0xa2 <__bad_interrupt>
  2c:	0c 94 51 00 	jmp	0xa2	; 0xa2 <__bad_interrupt>
  30:	0c 94 51 00 	jmp	0xa2	; 0xa2 <__bad_interrupt>
  34:	0c 94 51 00 	jmp	0xa2	; 0xa2 <__bad_interrupt>
  38:	0c 94 f2 00 	jmp	0x1e4	; 0x1e4 <__vector_14>
  3c:	0c 94 51 00 	jmp	0xa2	; 0xa2 <__bad_interrupt>
  40:	0c 94 51 00 	jmp	0xa2	; 0xa2 <__bad_interrupt>
  44:	0c 94 51 00 	jmp	0xa2	; 0xa2 <__bad_interrupt>
  48:	0c 94 51 00 	jmp	0xa2	; 0xa2 <__bad_interrupt>
  4c:	0c 94 51 00 	jmp	0xa2	; 0xa2 <__bad_interrupt>
  50:	0c 94 51 00 	jmp	0xa2	; 0xa2 <__bad_interrupt>
  54:	0c 94 51 00 	jmp	0xa2	; 0xa2 <__bad_interrupt>
  58:	0c 94 51 00 	jmp	0xa2	; 0xa2 <__bad_interrupt>
  5c:	0c 94 51 00 	jmp	0xa2	; 0xa2 <__bad_interrupt>
  60:	0c 94 51 00 	jmp	0xa2	; 0xa2 <__bad_interrupt>
  64:	0c 94 51 00 	jmp	0xa2	; 0xa2 <__bad_interrupt>

00000068 <__ctors_end>:
  68:	11 24       	eor	r1, r1
  6a:	1f be       	out	0x3f, r1	; 63
  6c:	cf ef       	ldi	r28, 0xFF	; 255
  6e:	d8 e0       	ldi	r29, 0x08	; 8
  70:	de bf       	out	0x3e, r29	; 62
  72:	cd bf       	out	0x3d, r28	; 61

00000074 <__do_copy_data>:
  74:	11 e0       	ldi	r17, 0x01	; 1
  76:	a0 e0       	ldi	r26, 0x00	; 0
  78:	b1 e0       	ldi	r27, 0x01	; 1
  7a:	e4 ea       	ldi	r30, 0xA4	; 164
  7c:	f2 e0       	ldi	r31, 0x02	; 2
  7e:	02 c0       	rjmp	.+4      	; 0x84 <__do_copy_data+0x10>
  80:	05 90       	lpm	r0, Z+
  82:	0d 92       	st	X+, r0
  84:	aa 36       	cpi	r26, 0x6A	; 106
  86:	b1 07       	cpc	r27, r17
  88:	d9 f7       	brne	.-10     	; 0x80 <__do_copy_data+0xc>

0000008a <__do_clear_bss>:
  8a:	21 e0       	ldi	r18, 0x01	; 1
  8c:	aa e6       	ldi	r26, 0x6A	; 106
  8e:	b1 e0       	ldi	r27, 0x01	; 1
  90:	01 c0       	rjmp	.+2      	; 0x94 <.do_clear_bss_start>

00000092 <.do_clear_bss_loop>:
  92:	1d 92       	st	X+, r1

00000094 <.do_clear_bss_start>:
  94:	ac 36       	cpi	r26, 0x6C	; 108
  96:	b2 07       	cpc	r27, r18
  98:	e1 f7       	brne	.-8      	; 0x92 <.do_clear_bss_loop>
  9a:	0e 94 09 01 	call	0x212	; 0x212 <main>
  9e:	0c 94 50 01 	jmp	0x2a0	; 0x2a0 <_exit>

000000a2 <__bad_interrupt>:
  a2:	0c 94 00 00 	jmp	0	; 0x0 <__vectors>

000000a6 <seg_write>:
	{1,1,1,0,0,0,0},
	{1,1,1,1,1,1,1},
	{1,1,1,1,0,1,1}
};

static void seg_write(const PinSeg *p, uint8_t valor) {
  a6:	fc 01       	movw	r30, r24
	if (valor) {
  a8:	66 23       	and	r22, r22
  aa:	71 f0       	breq	.+28     	; 0xc8 <seg_write+0x22>
		*(p->port) |= (uint8_t)(1 << p->bit);
  ac:	a0 81       	ld	r26, Z
  ae:	b1 81       	ldd	r27, Z+1	; 0x01
  b0:	2c 91       	ld	r18, X
  b2:	81 e0       	ldi	r24, 0x01	; 1
  b4:	90 e0       	ldi	r25, 0x00	; 0
  b6:	04 80       	ldd	r0, Z+4	; 0x04
  b8:	02 c0       	rjmp	.+4      	; 0xbe <seg_write+0x18>
  ba:	88 0f       	add	r24, r24
  bc:	99 1f       	adc	r25, r25
  be:	0a 94       	dec	r0
  c0:	e2 f7       	brpl	.-8      	; 0xba <seg_write+0x14>
  c2:	82 2b       	or	r24, r18
  c4:	8c 93       	st	X, r24
  c6:	08 95       	ret
		} else {
		*(p->port) &= (uint8_t)~(1 << p->bit);
  c8:	a0 81       	ld	r26, Z
  ca:	b1 81       	ldd	r27, Z+1	; 0x01
  cc:	4c 91       	ld	r20, X
  ce:	21 e0       	ldi	r18, 0x01	; 1
  d0:	30 e0       	ldi	r19, 0x00	; 0
  d2:	c9 01       	movw	r24, r18
  d4:	04 80       	ldd	r0, Z+4	; 0x04
  d6:	02 c0       	rjmp	.+4      	; 0xdc <seg_write+0x36>
  d8:	88 0f       	add	r24, r24
  da:	99 1f       	adc	r25, r25
  dc:	0a 94       	dec	r0
  de:	e2 f7       	brpl	.-8      	; 0xd8 <seg_write+0x32>
  e0:	80 95       	com	r24
  e2:	84 23       	and	r24, r20
  e4:	8c 93       	st	X, r24
  e6:	08 95       	ret

000000e8 <display_apagar>:
		*(SEG[i].ddr) |= (uint8_t)(1 << SEG[i].bit);
	}
	display_apagar();
}

void display_apagar(void) {
  e8:	cf 93       	push	r28
  ea:	df 93       	push	r29
	int i;
	for (i = 0; i < 7; i++) {
  ec:	c0 e0       	ldi	r28, 0x00	; 0
  ee:	d0 e0       	ldi	r29, 0x00	; 0
  f0:	0d c0       	rjmp	.+26     	; 0x10c <display_apagar+0x24>
		seg_write(&SEG[i], 1);
  f2:	ce 01       	movw	r24, r28
  f4:	88 0f       	add	r24, r24
  f6:	99 1f       	adc	r25, r25
  f8:	88 0f       	add	r24, r24
  fa:	99 1f       	adc	r25, r25
  fc:	8c 0f       	add	r24, r28
  fe:	9d 1f       	adc	r25, r29
 100:	61 e0       	ldi	r22, 0x01	; 1
 102:	8a 5b       	subi	r24, 0xBA	; 186
 104:	9e 4f       	sbci	r25, 0xFE	; 254
 106:	0e 94 53 00 	call	0xa6	; 0xa6 <seg_write>
	display_apagar();
}

void display_apagar(void) {
	int i;
	for (i = 0; i < 7; i++) {
 10a:	21 96       	adiw	r28, 0x01	; 1
 10c:	c7 30       	cpi	r28, 0x07	; 7
 10e:	d1 05       	cpc	r29, r1
 110:	84 f3       	brlt	.-32     	; 0xf2 <display_apagar+0xa>
		seg_write(&SEG[i], 1);
	}
}
 112:	df 91       	pop	r29
 114:	cf 91       	pop	r28
 116:	08 95       	ret

00000118 <display_init>:
	}
}

void display_init(void) {
	int i;
	for (i = 0; i < 7; i++) {
 118:	20 e0       	ldi	r18, 0x00	; 0
 11a:	30 e0       	ldi	r19, 0x00	; 0
 11c:	18 c0       	rjmp	.+48     	; 0x14e <display_init+0x36>
		*(SEG[i].ddr) |= (uint8_t)(1 << SEG[i].bit);
 11e:	f9 01       	movw	r30, r18
 120:	ee 0f       	add	r30, r30
 122:	ff 1f       	adc	r31, r31
 124:	ee 0f       	add	r30, r30
 126:	ff 1f       	adc	r31, r31
 128:	e2 0f       	add	r30, r18
 12a:	f3 1f       	adc	r31, r19
 12c:	ea 5b       	subi	r30, 0xBA	; 186
 12e:	fe 4f       	sbci	r31, 0xFE	; 254
 130:	a2 81       	ldd	r26, Z+2	; 0x02
 132:	b3 81       	ldd	r27, Z+3	; 0x03
 134:	4c 91       	ld	r20, X
 136:	81 e0       	ldi	r24, 0x01	; 1
 138:	90 e0       	ldi	r25, 0x00	; 0
 13a:	04 80       	ldd	r0, Z+4	; 0x04
 13c:	02 c0       	rjmp	.+4      	; 0x142 <display_init+0x2a>
 13e:	88 0f       	add	r24, r24
 140:	99 1f       	adc	r25, r25
 142:	0a 94       	dec	r0
 144:	e2 f7       	brpl	.-8      	; 0x13e <display_init+0x26>
 146:	84 2b       	or	r24, r20
 148:	8c 93       	st	X, r24
	}
}

void display_init(void) {
	int i;
	for (i = 0; i < 7; i++) {
 14a:	2f 5f       	subi	r18, 0xFF	; 255
 14c:	3f 4f       	sbci	r19, 0xFF	; 255
 14e:	27 30       	cpi	r18, 0x07	; 7
 150:	31 05       	cpc	r19, r1
 152:	2c f3       	brlt	.-54     	; 0x11e <display_init+0x6>
		*(SEG[i].ddr) |= (uint8_t)(1 << SEG[i].bit);
	}
	display_apagar();
 154:	0e 94 74 00 	call	0xe8	; 0xe8 <display_apagar>
 158:	08 95       	ret

0000015a <display_mostrar_digito>:
	for (i = 0; i < 7; i++) {
		seg_write(&SEG[i], 1);
	}
}

void display_mostrar_digito(int d) {
 15a:	0f 93       	push	r16
 15c:	1f 93       	push	r17
 15e:	cf 93       	push	r28
 160:	df 93       	push	r29
 162:	8c 01       	movw	r16, r24
	int i;
	if (d < 0 || d > 9) {
 164:	0a 97       	sbiw	r24, 0x0a	; 10
 166:	18 f1       	brcs	.+70     	; 0x1ae <display_mostrar_digito+0x54>
		display_apagar();
 168:	0e 94 74 00 	call	0xe8	; 0xe8 <display_apagar>
		return;
 16c:	25 c0       	rjmp	.+74     	; 0x1b8 <display_mostrar_digito+0x5e>
	}
	for (i = 0; i < 7; i++) {
		seg_write(&SEG[i], DIGITOS[d][i] ? 0 : 1);
 16e:	f8 01       	movw	r30, r16
 170:	ee 0f       	add	r30, r30
 172:	ff 1f       	adc	r31, r31
 174:	ee 0f       	add	r30, r30
 176:	ff 1f       	adc	r31, r31
 178:	ee 0f       	add	r30, r30
 17a:	ff 1f       	adc	r31, r31
 17c:	e0 1b       	sub	r30, r16
 17e:	f1 0b       	sbc	r31, r17
 180:	e0 50       	subi	r30, 0x00	; 0
 182:	ff 4f       	sbci	r31, 0xFF	; 255
 184:	ec 0f       	add	r30, r28
 186:	fd 1f       	adc	r31, r29
 188:	80 81       	ld	r24, Z
 18a:	88 23       	and	r24, r24
 18c:	11 f0       	breq	.+4      	; 0x192 <display_mostrar_digito+0x38>
 18e:	60 e0       	ldi	r22, 0x00	; 0
 190:	01 c0       	rjmp	.+2      	; 0x194 <display_mostrar_digito+0x3a>
 192:	61 e0       	ldi	r22, 0x01	; 1
 194:	ce 01       	movw	r24, r28
 196:	88 0f       	add	r24, r24
 198:	99 1f       	adc	r25, r25
 19a:	88 0f       	add	r24, r24
 19c:	99 1f       	adc	r25, r25
 19e:	8c 0f       	add	r24, r28
 1a0:	9d 1f       	adc	r25, r29
 1a2:	8a 5b       	subi	r24, 0xBA	; 186
 1a4:	9e 4f       	sbci	r25, 0xFE	; 254
 1a6:	0e 94 53 00 	call	0xa6	; 0xa6 <seg_write>
	int i;
	if (d < 0 || d > 9) {
		display_apagar();
		return;
	}
	for (i = 0; i < 7; i++) {
 1aa:	21 96       	adiw	r28, 0x01	; 1
 1ac:	02 c0       	rjmp	.+4      	; 0x1b2 <display_mostrar_digito+0x58>
 1ae:	c0 e0       	ldi	r28, 0x00	; 0
 1b0:	d0 e0       	ldi	r29, 0x00	; 0
 1b2:	c7 30       	cpi	r28, 0x07	; 7
 1b4:	d1 05       	cpc	r29, r1
 1b6:	dc f2       	brlt	.-74     	; 0x16e <display_mostrar_digito+0x14>
		seg_write(&SEG[i], DIGITOS[d][i] ? 0 : 1);
	}
 1b8:	df 91       	pop	r29
 1ba:	cf 91       	pop	r28
 1bc:	1f 91       	pop	r17
 1be:	0f 91       	pop	r16
 1c0:	08 95       	ret

000001c2 <timer0_init>:


static ticks_ms = 0;

static void timer0_init(void) {
    TCCR0A = (1 << WGM01);              /* Modo CTC */
 1c2:	82 e0       	ldi	r24, 0x02	; 2
 1c4:	84 bd       	out	0x24, r24	; 36
    TCCR0B = (1 << CS01) | (1 << CS00); /* Prescaler 64 */
 1c6:	93 e0       	ldi	r25, 0x03	; 3
 1c8:	95 bd       	out	0x25, r25	; 37
    OCR0A  = 249;                       /* 16MHz/64/250 = 1000 Hz -> 1 ms */
 1ca:	99 ef       	ldi	r25, 0xF9	; 249
 1cc:	97 bd       	out	0x27, r25	; 39
    TIMSK0 = (1 << OCIE0A);
 1ce:	80 93 6e 00 	sts	0x006E, r24	; 0x80006e <__TEXT_REGION_LENGTH__+0x7f806e>
    sei();
 1d2:	78 94       	sei
 1d4:	08 95       	ret

000001d6 <millis>:
    ticks_ms++;
}

static millis(void) {
    unsigned long m;
    cli();
 1d6:	f8 94       	cli
    m = ticks_ms;
 1d8:	80 91 6a 01 	lds	r24, 0x016A	; 0x80016a <__data_end>
 1dc:	90 91 6b 01 	lds	r25, 0x016B	; 0x80016b <__data_end+0x1>
    sei();
 1e0:	78 94       	sei
    return m;
}
 1e2:	08 95       	ret

000001e4 <__vector_14>:
    OCR0A  = 249;                       /* 16MHz/64/250 = 1000 Hz -> 1 ms */
    TIMSK0 = (1 << OCIE0A);
    sei();
}

ISR(TIMER0_COMPA_vect) {
 1e4:	1f 92       	push	r1
 1e6:	0f 92       	push	r0
 1e8:	0f b6       	in	r0, 0x3f	; 63
 1ea:	0f 92       	push	r0
 1ec:	11 24       	eor	r1, r1
 1ee:	8f 93       	push	r24
 1f0:	9f 93       	push	r25
    ticks_ms++;
 1f2:	80 91 6a 01 	lds	r24, 0x016A	; 0x80016a <__data_end>
 1f6:	90 91 6b 01 	lds	r25, 0x016B	; 0x80016b <__data_end+0x1>
 1fa:	01 96       	adiw	r24, 0x01	; 1
 1fc:	90 93 6b 01 	sts	0x016B, r25	; 0x80016b <__data_end+0x1>
 200:	80 93 6a 01 	sts	0x016A, r24	; 0x80016a <__data_end>
}
 204:	9f 91       	pop	r25
 206:	8f 91       	pop	r24
 208:	0f 90       	pop	r0
 20a:	0f be       	out	0x3f, r0	; 63
 20c:	0f 90       	pop	r0
 20e:	1f 90       	pop	r1
 210:	18 95       	reti

00000212 <main>:
		);
	}
	else
	{
        uint8_t register temp_reg;
		__asm__ __volatile__ (
 212:	0f b6       	in	r0, 0x3f	; 63
 214:	f8 94       	cli
 216:	a8 95       	wdr
 218:	80 91 60 00 	lds	r24, 0x0060	; 0x800060 <__TEXT_REGION_LENGTH__+0x7f8060>
 21c:	88 61       	ori	r24, 0x18	; 24
 21e:	80 93 60 00 	sts	0x0060, r24	; 0x800060 <__TEXT_REGION_LENGTH__+0x7f8060>
 222:	10 92 60 00 	sts	0x0060, r1	; 0x800060 <__TEXT_REGION_LENGTH__+0x7f8060>
 226:	0f be       	out	0x3f, r0	; 63
    unsigned long ultimoCambio;


    wdt_disable();

    timer0_init();
 228:	0e 94 e1 00 	call	0x1c2	; 0x1c2 <timer0_init>
    display_init();
 22c:	0e 94 8c 00 	call	0x118	; 0x118 <display_init>

    display_mostrar_digito(n);
 230:	85 e0       	ldi	r24, 0x05	; 5
 232:	90 e0       	ldi	r25, 0x00	; 0
 234:	0e 94 ad 00 	call	0x15a	; 0x15a <display_mostrar_digito>
    ultimoCambio = millis();
 238:	0e 94 eb 00 	call	0x1d6	; 0x1d6 <millis>
 23c:	6c 01       	movw	r12, r24
 23e:	99 0f       	add	r25, r25
 240:	ee 08       	sbc	r14, r14
 242:	ff 08       	sbc	r15, r15

typedef enum { MOSTRANDO, PAUSA } EstadoContador;

int main(void) {
    int n = 5;
    EstadoContador estado = MOSTRANDO;
 244:	10 e0       	ldi	r17, 0x00	; 0
}

typedef enum { MOSTRANDO, PAUSA } EstadoContador;

int main(void) {
    int n = 5;
 246:	c5 e0       	ldi	r28, 0x05	; 5
 248:	d0 e0       	ldi	r29, 0x00	; 0

    display_mostrar_digito(n);
    ultimoCambio = millis();

    for (;;) {
        if ((millis() - ultimoCambio) >= 1000) {
 24a:	0e 94 eb 00 	call	0x1d6	; 0x1d6 <millis>
 24e:	09 2e       	mov	r0, r25
 250:	00 0c       	add	r0, r0
 252:	aa 0b       	sbc	r26, r26
 254:	bb 0b       	sbc	r27, r27
 256:	8c 19       	sub	r24, r12
 258:	9d 09       	sbc	r25, r13
 25a:	ae 09       	sbc	r26, r14
 25c:	bf 09       	sbc	r27, r15
 25e:	88 3e       	cpi	r24, 0xE8	; 232
 260:	93 40       	sbci	r25, 0x03	; 3
 262:	a1 05       	cpc	r26, r1
 264:	b1 05       	cpc	r27, r1
 266:	88 f3       	brcs	.-30     	; 0x24a <main+0x38>
            ultimoCambio = millis();
 268:	0e 94 eb 00 	call	0x1d6	; 0x1d6 <millis>
 26c:	6c 01       	movw	r12, r24
 26e:	99 0f       	add	r25, r25
 270:	ee 08       	sbc	r14, r14
 272:	ff 08       	sbc	r15, r15

            if (estado == MOSTRANDO) {
 274:	11 11       	cpse	r17, r1
 276:	0c c0       	rjmp	.+24     	; 0x290 <main+0x7e>
                if (n > 0) {
 278:	1c 16       	cp	r1, r28
 27a:	1d 06       	cpc	r1, r29
 27c:	2c f4       	brge	.+10     	; 0x288 <main+0x76>
                    n--;
 27e:	21 97       	sbiw	r28, 0x01	; 1
                    display_mostrar_digito(n);
 280:	ce 01       	movw	r24, r28
 282:	0e 94 ad 00 	call	0x15a	; 0x15a <display_mostrar_digito>
 286:	e1 cf       	rjmp	.-62     	; 0x24a <main+0x38>
                } else {
                    display_apagar();
 288:	0e 94 74 00 	call	0xe8	; 0xe8 <display_apagar>
                    estado = PAUSA;
 28c:	11 e0       	ldi	r17, 0x01	; 1
 28e:	dd cf       	rjmp	.-70     	; 0x24a <main+0x38>
                }
            } else { /* PAUSA */
                n = 5;
                display_mostrar_digito(n);
 290:	85 e0       	ldi	r24, 0x05	; 5
 292:	90 e0       	ldi	r25, 0x00	; 0
 294:	0e 94 ad 00 	call	0x15a	; 0x15a <display_mostrar_digito>
                estado = MOSTRANDO;
 298:	10 e0       	ldi	r17, 0x00	; 0
                } else {
                    display_apagar();
                    estado = PAUSA;
                }
            } else { /* PAUSA */
                n = 5;
 29a:	c5 e0       	ldi	r28, 0x05	; 5
 29c:	d0 e0       	ldi	r29, 0x00	; 0
 29e:	d5 cf       	rjmp	.-86     	; 0x24a <main+0x38>

000002a0 <_exit>:
 2a0:	f8 94       	cli

000002a2 <__stop_program>:
 2a2:	ff cf       	rjmp	.-2      	; 0x2a2 <__stop_program>
